; ModuleID = 'source-C-CXX/43/383.cpp'
source_filename = "source-C-CXX/43/383.cpp"
target datalayout = "e-m:e-p270:32:32-p271:32:32-p272:64:64-i64:64-f80:128-n8:16:32:64-S128"
target triple = "x86_64-pc-linux-gnu"

%"class.std::ios_base::Init" = type { i8 }
%"class.std::basic_istream" = type { i32 (...)**, i64, %"class.std::basic_ios" }
%"class.std::basic_ios" = type { %"class.std::ios_base", %"class.std::basic_ostream"*, i8, i8, %"class.std::basic_streambuf"*, %"class.std::ctype"*, %"class.std::num_put"*, %"class.std::num_get"* }
%"class.std::ios_base" = type { i32 (...)**, i64, i64, i32, i32, i32, %"struct.std::ios_base::_Callback_list"*, %"struct.std::ios_base::_Words", [8 x %"struct.std::ios_base::_Words"], i32, %"struct.std::ios_base::_Words"*, %"class.std::locale" }
%"struct.std::ios_base::_Callback_list" = type { %"struct.std::ios_base::_Callback_list"*, void (i32, %"class.std::ios_base"*, i32)*, i32, i32 }
%"struct.std::ios_base::_Words" = type { i8*, i64 }
%"class.std::locale" = type { %"class.std::locale::_Impl"* }
%"class.std::locale::_Impl" = type { i32, %"class.std::locale::facet"**, i64, %"class.std::locale::facet"**, i8** }
%"class.std::locale::facet" = type <{ i32 (...)**, i32, [4 x i8] }>
%"class.std::basic_ostream" = type { i32 (...)**, %"class.std::basic_ios" }
%"class.std::basic_streambuf" = type { i32 (...)**, i8*, i8*, i8*, i8*, i8*, i8*, %"class.std::locale" }
%"class.std::ctype" = type <{ %"class.std::locale::facet.base", [4 x i8], %struct.__locale_struct*, i8, [7 x i8], i32*, i32*, i16*, i8, [256 x i8], [256 x i8], i8, [6 x i8] }>
%"class.std::locale::facet.base" = type <{ i32 (...)**, i32 }>
%struct.__locale_struct = type { [13 x %struct.__locale_data*], i16*, i32*, i32*, [13 x i8*] }
%struct.__locale_data = type opaque
%"class.std::num_put" = type { %"class.std::locale::facet.base", [4 x i8] }
%"class.std::num_get" = type { %"class.std::locale::facet.base", [4 x i8] }

@_ZStL8__ioinit = internal global %"class.std::ios_base::Init" zeroinitializer, align 1
@__dso_handle = external hidden global i8
@_ZSt3cin = external global %"class.std::basic_istream", align 8
@_ZSt4cout = external global %"class.std::basic_ostream", align 8
@llvm.global_ctors = appending global [1 x { i32, void ()*, i8* }] [{ i32, void ()*, i8* } { i32 65535, void ()* @_GLOBAL__sub_I_383.cpp, i8* null }]

declare void @_ZNSt8ios_base4InitC1Ev(%"class.std::ios_base::Init"* nonnull align 1 dereferenceable(1)) unnamed_addr #0

; Function Attrs: nounwind
declare void @_ZNSt8ios_base4InitD1Ev(%"class.std::ios_base::Init"* nonnull align 1 dereferenceable(1)) unnamed_addr #1

; Function Attrs: nofree nounwind
declare i32 @__cxa_atexit(void (i8*)*, i8*, i8*) local_unnamed_addr #2

; Function Attrs: mustprogress nofree nounwind sspstrong uwtable
define dso_local i64 @_Z7reversei(i32 %0) local_unnamed_addr #3 {
  %2 = icmp slt i32 %0, 0
  %3 = sub nsw i32 0, %0
  %4 = select i1 %2, i32 %3, i32 %0
  br label %5

5:                                                ; preds = %5, %1
  %6 = phi i32 [ 1, %1 ], [ %8, %5 ]
  %7 = phi i32 [ 0, %1 ], [ %10, %5 ]
  %8 = mul nsw i32 %6, 10
  %9 = icmp sgt i32 %8, %4
  %10 = add nuw i32 %7, 1
  br i1 %9, label %15, label %5, !llvm.loop !5

11:                                               ; preds = %15
  %12 = sub nsw i32 0, %25
  %13 = select i1 %2, i32 %12, i32 %25
  %14 = sext i32 %13 to i64
  ret i64 %14

15:                                               ; preds = %5, %15
  %16 = phi i32 [ %28, %15 ], [ 0, %5 ]
  %17 = phi i32 [ %25, %15 ], [ 0, %5 ]
  %18 = phi i32 [ %27, %15 ], [ %6, %5 ]
  %19 = phi i32 [ %26, %15 ], [ %4, %5 ]
  %20 = sdiv i32 %19, %18
  %21 = sitofp i32 %16 to double
  %22 = tail call double @pow(double 1.000000e+01, double %21) #9
  %23 = fptosi double %22 to i32
  %24 = mul nsw i32 %20, %23
  %25 = add nsw i32 %24, %17
  %26 = srem i32 %19, %18
  %27 = sdiv i32 %18, 10
  %28 = add nuw i32 %16, 1
  %29 = icmp eq i32 %16, %7
  br i1 %29, label %11, label %15, !llvm.loop !7
}

; Function Attrs: argmemonly mustprogress nofree nosync nounwind willreturn
declare void @llvm.lifetime.start.p0i8(i64 immarg, i8* nocapture) #4

; Function Attrs: argmemonly mustprogress nofree nosync nounwind willreturn
declare void @llvm.lifetime.end.p0i8(i64 immarg, i8* nocapture) #4

; Function Attrs: mustprogress norecurse sspstrong uwtable
define dso_local i32 @main() local_unnamed_addr #5 {
  %1 = alloca i32, align 4
  %2 = bitcast i32* %1 to i8*
  call void @llvm.lifetime.start.p0i8(i64 4, i8* nonnull %2) #9
  br label %4

3:                                                ; preds = %62
  call void @llvm.lifetime.end.p0i8(i64 4, i8* nonnull %2) #9
  ret i32 0

4:                                                ; preds = %0, %62
  %5 = phi i32 [ 1, %0 ], [ %66, %62 ]
  %6 = call nonnull align 8 dereferenceable(16) %"class.std::basic_istream"* @_ZNSirsERi(%"class.std::basic_istream"* nonnull align 8 dereferenceable(16) @_ZSt3cin, i32* nonnull align 4 dereferenceable(4) %1)
  %7 = load i32, i32* %1, align 4, !tbaa !8
  %8 = icmp slt i32 %7, 0
  %9 = sub nsw i32 0, %7
  %10 = select i1 %8, i32 %9, i32 %7
  br label %11

11:                                               ; preds = %11, %4
  %12 = phi i32 [ 1, %4 ], [ %14, %11 ]
  %13 = phi i32 [ 0, %4 ], [ %16, %11 ]
  %14 = mul nsw i32 %12, 10
  %15 = icmp sgt i32 %14, %10
  %16 = add nuw i32 %13, 1
  br i1 %15, label %17, label %11, !llvm.loop !5

17:                                               ; preds = %11, %17
  %18 = phi i32 [ %30, %17 ], [ 0, %11 ]
  %19 = phi i32 [ %27, %17 ], [ 0, %11 ]
  %20 = phi i32 [ %29, %17 ], [ %12, %11 ]
  %21 = phi i32 [ %28, %17 ], [ %10, %11 ]
  %22 = sdiv i32 %21, %20
  %23 = sitofp i32 %18 to double
  %24 = call double @pow(double 1.000000e+01, double %23) #9
  %25 = fptosi double %24 to i32
  %26 = mul nsw i32 %22, %25
  %27 = add nsw i32 %26, %19
  %28 = srem i32 %21, %20
  %29 = sdiv i32 %20, 10
  %30 = add nuw i32 %18, 1
  %31 = icmp eq i32 %18, %13
  br i1 %31, label %32, label %17, !llvm.loop !7

32:                                               ; preds = %17
  %33 = sub nsw i32 0, %27
  %34 = select i1 %8, i32 %33, i32 %27
  %35 = sext i32 %34 to i64
  %36 = call nonnull align 8 dereferenceable(8) %"class.std::basic_ostream"* @_ZNSo9_M_insertIxEERSoT_(%"class.std::basic_ostream"* nonnull align 8 dereferenceable(8) @_ZSt4cout, i64 %35)
  %37 = bitcast %"class.std::basic_ostream"* %36 to i8**
  %38 = load i8*, i8** %37, align 8, !tbaa !12
  %39 = getelementptr i8, i8* %38, i64 -24
  %40 = bitcast i8* %39 to i64*
  %41 = load i64, i64* %40, align 8
  %42 = bitcast %"class.std::basic_ostream"* %36 to i8*
  %43 = add nsw i64 %41, 240
  %44 = getelementptr inbounds i8, i8* %42, i64 %43
  %45 = bitcast i8* %44 to %"class.std::ctype"**
  %46 = load %"class.std::ctype"*, %"class.std::ctype"** %45, align 8, !tbaa !14
  %47 = icmp eq %"class.std::ctype"* %46, null
  br i1 %47, label %48, label %49

48:                                               ; preds = %32
  call void @_ZSt16__throw_bad_castv() #10
  unreachable

49:                                               ; preds = %32
  %50 = getelementptr inbounds %"class.std::ctype", %"class.std::ctype"* %46, i64 0, i32 8
  %51 = load i8, i8* %50, align 8, !tbaa !18
  %52 = icmp eq i8 %51, 0
  br i1 %52, label %56, label %53

53:                                               ; preds = %49
  %54 = getelementptr inbounds %"class.std::ctype", %"class.std::ctype"* %46, i64 0, i32 9, i64 10
  %55 = load i8, i8* %54, align 1, !tbaa !20
  br label %62

56:                                               ; preds = %49
  call void @_ZNKSt5ctypeIcE13_M_widen_initEv(%"class.std::ctype"* nonnull align 8 dereferenceable(570) %46)
  %57 = bitcast %"class.std::ctype"* %46 to i8 (%"class.std::ctype"*, i8)***
  %58 = load i8 (%"class.std::ctype"*, i8)**, i8 (%"class.std::ctype"*, i8)*** %57, align 8, !tbaa !12
  %59 = getelementptr inbounds i8 (%"class.std::ctype"*, i8)*, i8 (%"class.std::ctype"*, i8)** %58, i64 6
  %60 = load i8 (%"class.std::ctype"*, i8)*, i8 (%"class.std::ctype"*, i8)** %59, align 8
  %61 = call signext i8 %60(%"class.std::ctype"* nonnull align 8 dereferenceable(570) %46, i8 signext 10)
  br label %62

62:                                               ; preds = %53, %56
  %63 = phi i8 [ %55, %53 ], [ %61, %56 ]
  %64 = call nonnull align 8 dereferenceable(8) %"class.std::basic_ostream"* @_ZNSo3putEc(%"class.std::basic_ostream"* nonnull align 8 dereferenceable(8) %36, i8 signext %63)
  %65 = call nonnull align 8 dereferenceable(8) %"class.std::basic_ostream"* @_ZNSo5flushEv(%"class.std::basic_ostream"* nonnull align 8 dereferenceable(8) %64)
  %66 = add nuw nsw i32 %5, 1
  %67 = icmp eq i32 %66, 7
  br i1 %67, label %3, label %4, !llvm.loop !21
}

declare nonnull align 8 dereferenceable(16) %"class.std::basic_istream"* @_ZNSirsERi(%"class.std::basic_istream"* nonnull align 8 dereferenceable(16), i32* nonnull align 4 dereferenceable(4)) local_unnamed_addr #0

; Function Attrs: mustprogress nofree nounwind willreturn
declare double @pow(double, double) local_unnamed_addr #6

declare nonnull align 8 dereferenceable(8) %"class.std::basic_ostream"* @_ZNSo9_M_insertIxEERSoT_(%"class.std::basic_ostream"* nonnull align 8 dereferenceable(8), i64) local_unnamed_addr #0

declare nonnull align 8 dereferenceable(8) %"class.std::basic_ostream"* @_ZNSo3putEc(%"class.std::basic_ostream"* nonnull align 8 dereferenceable(8), i8 signext) local_unnamed_addr #0

declare nonnull align 8 dereferenceable(8) %"class.std::basic_ostream"* @_ZNSo5flushEv(%"class.std::basic_ostream"* nonnull align 8 dereferenceable(8)) local_unnamed_addr #0

; Function Attrs: noreturn
declare void @_ZSt16__throw_bad_castv() local_unnamed_addr #7

declare void @_ZNKSt5ctypeIcE13_M_widen_initEv(%"class.std::ctype"* nonnull align 8 dereferenceable(570)) local_unnamed_addr #0

; Function Attrs: sspstrong uwtable
define internal void @_GLOBAL__sub_I_383.cpp() #8 section ".text.startup" {
  tail call void @_ZNSt8ios_base4InitC1Ev(%"class.std::ios_base::Init"* nonnull align 1 dereferenceable(1) @_ZStL8__ioinit)
  %1 = tail call i32 @__cxa_atexit(void (i8*)* bitcast (void (%"class.std::ios_base::Init"*)* @_ZNSt8ios_base4InitD1Ev to void (i8*)*), i8* getelementptr inbounds (%"class.std::ios_base::Init", %"class.std::ios_base::Init"* @_ZStL8__ioinit, i64 0, i32 0), i8* nonnull @__dso_handle) #9
  ret void
}


!llvm.module.flags = !{!0, !1, !2, !3}
!llvm.ident = !{!4}

!0 = !{i32 1, !"wchar_size", i32 4}
!1 = !{i32 7, !"PIC Level", i32 2}
!2 = !{i32 7, !"PIE Level", i32 2}
!3 = !{i32 7, !"uwtable", i32 1}
!4 = !{!"clang version 13.0.0"}
!5 = distinct !{!5, !6}
!6 = !{!"llvm.loop.mustprogress"}
!7 = distinct !{!7, !6}
!8 = !{!9, !9, i64 0}
!9 = !{!"int", !10, i64 0}
!10 = !{!"omnipotent char", !11, i64 0}
!11 = !{!"Simple C++ TBAA"}
!12 = !{!13, !13, i64 0}
!13 = !{!"vtable pointer", !11, i64 0}
!14 = !{!15, !16, i64 240}
!15 = !{!"_ZTSSt9basic_iosIcSt11char_traitsIcEE", !16, i64 216, !10, i64 224, !17, i64 225, !16, i64 232, !16, i64 240, !16, i64 248, !16, i64 256}
!16 = !{!"any pointer", !10, i64 0}
!17 = !{!"bool", !10, i64 0}
!18 = !{!19, !10, i64 56}
!19 = !{!"_ZTSSt5ctypeIcE", !16, i64 16, !17, i64 24, !16, i64 32, !16, i64 40, !16, i64 48, !10, i64 56, !10, i64 57, !10, i64 313, !10, i64 569}
!20 = !{!10, !10, i64 0}
!21 = distinct !{!21, !6}
